; Function Attrs: mustprogress uwtable
define void @_ZN2cv3Mat8pop_backEm(ptr noundef nonnull align 8 dereferenceable(96) %0, i64 noundef %1) local_unnamed_addr #1 align 2 personality ptr @__gxx_personality_v0 {
  %3 = alloca %"class.cv::Range", align 4
  %4 = alloca %"class.cv::Range", align 8
  %5 = alloca %"class.std::__cxx11::basic_string", align 8
  %6 = alloca %"class.std::allocator", align 1
  %7 = alloca %"class.cv::Mat", align 8
  %8 = getelementptr inbounds nuw i8, ptr %0, i64 64
  %9 = load ptr, ptr %8, align 8, !tbaa !58
  %10 = load i32, ptr %9, align 4, !tbaa !23
  %11 = sext i32 %10 to i64
  %.not = icmp ugt i64 %1, %11
  br i1 %.not, label %12, label %25

12:                                               ; preds = %2
  call void @llvm.lifetime.start.p0(i64 32, ptr nonnull %5) #24
  call void @llvm.lifetime.start.p0(i64 1, ptr nonnull %6) #24
  invoke void @_ZNSt7__cxx1112basic_stringIcSt11char_traitsIcESaIcEEC2EPKcRKS3_(ptr noundef nonnull align 8 dereferenceable(32) %5, ptr noundef nonnull @.str.28, ptr noundef nonnull align 1 dereferenceable(1) %6)
          to label %13 unwind label %15

13:                                               ; preds = %12
  invoke void @_ZN2cv5errorEiRKNSt7__cxx1112basic_stringIcSt11char_traitsIcESaIcEEEPKcS9_i(i32 noundef -215, ptr noundef nonnull align 8 dereferenceable(32) %5, ptr noundef nonnull @__func__._ZN2cv3Mat8pop_backEm, ptr noundef nonnull @.str.1, i32 noundef 932) #25
          to label %14 unwind label %17

14:                                               ; preds = %13
  unreachable

15:                                               ; preds = %12
  %16 = landingpad { ptr, i32 }
          cleanup
  br label %_ZNSt7__cxx1112basic_stringIcSt11char_traitsIcESaIcEED2Ev.exit

17:                                               ; preds = %13
  %18 = landingpad { ptr, i32 }
          cleanup
  %19 = load ptr, ptr %5, align 8, !tbaa !26
  %20 = getelementptr inbounds nuw i8, ptr %5, i64 16
  %21 = icmp eq ptr %19, %20
  br i1 %21, label %_ZNKSt7__cxx1112basic_stringIcSt11char_traitsIcESaIcEE11_M_is_localEv.exit.thread.i.i, label %_ZNKSt7__cxx1112basic_stringIcSt11char_traitsIcESaIcEE11_M_is_localEv.exit.i.i

_ZNKSt7__cxx1112basic_stringIcSt11char_traitsIcESaIcEE11_M_is_localEv.exit.thread.i.i: ; preds = %17
  %22 = getelementptr inbounds nuw i8, ptr %5, i64 8
  %23 = load i64, ptr %22, align 8, !tbaa !29
  %24 = icmp ult i64 %23, 16
  call void @llvm.assume(i1 %24)
  br label %_ZNSt7__cxx1112basic_stringIcSt11char_traitsIcESaIcEED2Ev.exit

_ZNKSt7__cxx1112basic_stringIcSt11char_traitsIcESaIcEE11_M_is_localEv.exit.i.i: ; preds = %17
  call void @_ZdlPv(ptr noundef %19) #26
  br label %_ZNSt7__cxx1112basic_stringIcSt11char_traitsIcESaIcEED2Ev.exit

_ZNSt7__cxx1112basic_stringIcSt11char_traitsIcESaIcEED2Ev.exit: ; preds = %_ZNKSt7__cxx1112basic_stringIcSt11char_traitsIcESaIcEE11_M_is_localEv.exit.i.i, %_ZNKSt7__cxx1112basic_stringIcSt11char_traitsIcESaIcEE11_M_is_localEv.exit.thread.i.i, %15
  %.pn = phi { ptr, i32 } [ %16, %15 ], [ %18, %_ZNKSt7__cxx1112basic_stringIcSt11char_traitsIcESaIcEE11_M_is_localEv.exit.thread.i.i ], [ %18, %_ZNKSt7__cxx1112basic_stringIcSt11char_traitsIcESaIcEE11_M_is_localEv.exit.i.i ]
  call void @llvm.lifetime.end.p0(i64 1, ptr nonnull %6) #24
  call void @llvm.lifetime.end.p0(i64 32, ptr nonnull %5) #24
  br label %48

25:                                               ; preds = %2
  %26 = load i32, ptr %0, align 8, !tbaa !61
  %27 = and i32 %26, 32768
  %.not12 = icmp eq i32 %27, 0
  br i1 %.not12, label %36, label %28

28:                                               ; preds = %25
  call void @llvm.lifetime.start.p0(i64 96, ptr nonnull %7) #24
  %29 = trunc i64 %1 to i32
  %30 = sub nsw i32 %10, %29
  call void @llvm.lifetime.start.p0(i64 8, ptr nonnull %3) #24, !noalias !105
  store i32 0, ptr %3, align 4, !tbaa !91, !noalias !105
  %31 = getelementptr inbounds nuw i8, ptr %3, i64 4
  store i32 %30, ptr %31, align 4, !tbaa !108, !noalias !105
  call void @llvm.lifetime.start.p0(i64 8, ptr nonnull %4) #24, !noalias !105
  store i64 9223372034707292160, ptr %4, align 8, !noalias !105
  call void @_ZN2cv3MatC1ERKS0_RKNS_5RangeES5_(ptr noundef nonnull align 8 dereferenceable(96) %7, ptr noundef nonnull align 8 dereferenceable(96) %0, ptr noundef nonnull align 4 dereferenceable(8) %3, ptr noundef nonnull align 4 dereferenceable(8) %4)
  call void @llvm.lifetime.end.p0(i64 8, ptr nonnull %4) #24, !noalias !105
  call void @llvm.lifetime.end.p0(i64 8, ptr nonnull %3) #24, !noalias !105
  %32 = invoke noundef nonnull align 8 dereferenceable(96) ptr @_ZN2cv3MataSEOS0_(ptr noundef nonnull align 8 dereferenceable(96) %0, ptr noundef nonnull align 8 dereferenceable(96) %7)
          to label %33 unwind label %34

33:                                               ; preds = %28
  call void @_ZN2cv3MatD1Ev(ptr noundef nonnull align 8 dereferenceable(96) %7) #24
  call void @llvm.lifetime.end.p0(i64 96, ptr nonnull %7) #24
  br label %47

34:                                               ; preds = %28
  %35 = landingpad { ptr, i32 }
          cleanup
  call void @_ZN2cv3MatD1Ev(ptr noundef nonnull align 8 dereferenceable(96) %7) #24
  call void @llvm.lifetime.end.p0(i64 96, ptr nonnull %7) #24
  br label %48

36:                                               ; preds = %25
  %37 = trunc i64 %1 to i32
  %38 = sub nsw i32 %10, %37
  store i32 %38, ptr %9, align 4, !tbaa !23
  %39 = getelementptr inbounds nuw i8, ptr %0, i64 72
  %40 = load ptr, ptr %39, align 8, !tbaa !57
  %41 = load i64, ptr %40, align 8, !tbaa !22
  %42 = getelementptr inbounds nuw i8, ptr %0, i64 32
  %43 = load ptr, ptr %42, align 8, !tbaa !70
  %44 = mul i64 %1, %41
  %45 = sub i64 0, %44
  %46 = getelementptr inbounds i8, ptr %43, i64 %45
  store ptr %46, ptr %42, align 8, !tbaa !70
  br label %47

47:                                               ; preds = %36, %33
  ret void

48:                                               ; preds = %34, %_ZNSt7__cxx1112basic_stringIcSt11char_traitsIcESaIcEED2Ev.exit
  %.pn10 = phi { ptr, i32 } [ %35, %34 ], [ %.pn, %_ZNSt7__cxx1112basic_stringIcSt11char_traitsIcESaIcEED2Ev.exit ]
  resume { ptr, i32 } %.pn10
}